target datalayout = "e-m:e-p270:32:32-p271:32:32-p272:64:64-i64:64-i128:128-f80:128-n8:16:32:64-S128"
target triple = "x86_64-pc-linux-gnu"

%"class.pxrInternal_v0_24__pxrReserved__::TfType" = type { ptr }

@_ZZN32pxrInternal_v0_24__pxrReserved__19UsdLuxCylinderLight16_GetStaticTfTypeEvE6tfType = internal global %"class.pxrInternal_v0_24__pxrReserved__::TfType" zeroinitializer, align 8
@_ZGVZN32pxrInternal_v0_24__pxrReserved__19UsdLuxCylinderLight16_GetStaticTfTypeEvE6tfType = internal global i64 0, align 8

; Function Attrs: mustprogress uwtable
define linkonce_odr noundef nonnull align 8 dereferenceable(8) ptr @_ZN32pxrInternal_v0_24__pxrReserved__6TfType4FindERKSt9type_info(ptr noundef nonnull align 8 dereferenceable(16) %0) #0 comdat align 2 {
  %2 = alloca ptr, align 8
  store ptr %0, ptr %2, align 8
  %3 = load ptr, ptr %2, align 8
  %4 = call noundef nonnull align 8 dereferenceable(8) ptr @_ZN32pxrInternal_v0_24__pxrReserved__6TfType13_FindByTypeidERKSt9type_info(ptr noundef nonnull align 8 dereferenceable(16) %3)
  ret ptr %4
}

; Function Attrs: mustprogress uwtable
define linkonce_odr noundef nonnull align 8 dereferenceable(8) ptr @_ZN32pxrInternal_v0_24__pxrReserved__6TfType4FindINS_19UsdLuxCylinderLightEEERKS0_v() #0 comdat align 2 {
  %1 = call noundef nonnull align 8 dereferenceable(8) ptr @_ZN32pxrInternal_v0_24__pxrReserved__6TfType4FindERKSt9type_info(ptr noundef nonnull align 8 dereferenceable(16) @_ZTIN32pxrInternal_v0_24__pxrReserved__19UsdLuxCylinderLightE)
  ret ptr %1
}

; Function Attrs: mustprogress uwtable
define noundef nonnull align 8 dereferenceable(8) ptr @_ZN32pxrInternal_v0_24__pxrReserved__19UsdLuxCylinderLight16_GetStaticTfTypeEv() #0 align 2 personality ptr @__gxx_personality_v0 {
  %1 = alloca ptr, align 8
  %2 = alloca i32, align 4
  %3 = load atomic i8, ptr @_ZGVZN32pxrInternal_v0_24__pxrReserved__19UsdLuxCylinderLight16_GetStaticTfTypeEvE6tfType acquire, align 8
  %4 = icmp eq i8 %3, 0
  br i1 %4, label %5, label %11, !prof !4

5:                                                ; preds = %0
  %6 = call i32 @__cxa_guard_acquire(ptr @_ZGVZN32pxrInternal_v0_24__pxrReserved__19UsdLuxCylinderLight16_GetStaticTfTypeEvE6tfType) #6
  %7 = icmp ne i32 %6, 0
  br i1 %7, label %8, label %11

8:                                                ; preds = %5
  %9 = invoke noundef nonnull align 8 dereferenceable(8) ptr @_ZN32pxrInternal_v0_24__pxrReserved__6TfType4FindINS_19UsdLuxCylinderLightEEERKS0_v()
          to label %10 unwind label %12

10:                                               ; preds = %8
  call void @llvm.memcpy.p0.p0.i64(ptr align 8 @_ZZN32pxrInternal_v0_24__pxrReserved__19UsdLuxCylinderLight16_GetStaticTfTypeEvE6tfType, ptr align 8 %9, i64 8, i1 false)
  call void @__cxa_guard_release(ptr @_ZGVZN32pxrInternal_v0_24__pxrReserved__19UsdLuxCylinderLight16_GetStaticTfTypeEvE6tfType) #6
  br label %11

11:                                               ; preds = %10, %5, %0
  ret ptr @_ZZN32pxrInternal_v0_24__pxrReserved__19UsdLuxCylinderLight16_GetStaticTfTypeEvE6tfType

12:                                               ; preds = %8
  %13 = landingpad { ptr, i32 }
          cleanup
  %14 = extractvalue { ptr, i32 } %13, 0
  store ptr %14, ptr %1, align 8
  %15 = extractvalue { ptr, i32 } %13, 1
  store i32 %15, ptr %2, align 4
  call void @__cxa_guard_abort(ptr @_ZGVZN32pxrInternal_v0_24__pxrReserved__19UsdLuxCylinderLight16_GetStaticTfTypeEvE6tfType) #6
  br label %16

16:                                               ; preds = %12
  %17 = load ptr, ptr %1, align 8
  %18 = load i32, ptr %2, align 4
  %19 = insertvalue { ptr, i32 } poison, ptr %17, 0
  %20 = insertvalue { ptr, i32 } %19, i32 %18, 1
  resume { ptr, i32 } %20
}

; Function Attrs: mustprogress uwtable
define noundef nonnull align 8 dereferenceable(8) ptr @_ZNK32pxrInternal_v0_24__pxrReserved__19UsdLuxCylinderLight10_GetTfTypeEv(ptr noundef nonnull align 8 dereferenceable(24) %0) unnamed_addr #0 align 2 {
  %2 = alloca ptr, align 8
  store ptr %0, ptr %2, align 8
  %3 = call noundef nonnull align 8 dereferenceable(8) ptr @_ZN32pxrInternal_v0_24__pxrReserved__19UsdLuxCylinderLight16_GetStaticTfTypeEv()
  ret ptr %3
}